; Function Attrs: null_pointer_is_valid sspstrong uwtable
define hidden void @proto_register_pppoe() local_unnamed_addr #0 {
  %1 = tail call i32 @proto_register_protocol(ptr noundef nonnull @.str.135, ptr noundef nonnull @.str.136, ptr noundef nonnull @.str.137)
  store i32 %1, ptr @proto_pppoe, align 4
  tail call void @proto_register_subtree_array(ptr noundef nonnull @proto_register_pppoe.ett, i32 noundef 1)
  %2 = load i32, ptr @proto_pppoe, align 4
  tail call void @proto_register_field_array(i32 noundef %2, ptr noundef nonnull @proto_register_pppoe.hf, i32 noundef 5)
  %3 = load i32, ptr @proto_pppoe, align 4
  %4 = tail call ptr @expert_register_protocol(i32 noundef %3)
  tail call void @expert_register_field_array(ptr noundef %4, ptr noundef nonnull @proto_register_pppoe.ei, i32 noundef 2)
  ret void
}